; Function Attrs: mustprogress uwtable
define dso_local noundef ptr @stbi_load_16_from_callbacks(ptr noundef readonly captures(none) %0, ptr noundef %1, ptr noundef captures(none) %2, ptr noundef captures(none) %3, ptr noundef %4, i32 noundef %5) local_unnamed_addr #5 {
  %7 = alloca %struct.stbi__context, align 8
  call void @llvm.lifetime.start.p0(i64 224, ptr nonnull %7) #40
  %8 = getelementptr inbounds nuw i8, ptr %7, i64 16
  call void @llvm.memcpy.p0.p0.i64(ptr noundef nonnull align 8 dereferenceable(24) %8, ptr noundef nonnull readonly align 8 dereferenceable(24) %0, i64 24, i1 false), !tbaa.struct !11
  %9 = getelementptr inbounds nuw i8, ptr %7, i64 40
  store ptr %1, ptr %9, align 8, !tbaa !13
  %10 = getelementptr inbounds nuw i8, ptr %7, i64 52
  store i32 128, ptr %10, align 4, !tbaa !16
  %11 = getelementptr inbounds nuw i8, ptr %7, i64 48
  store i32 1, ptr %11, align 8, !tbaa !17
  %12 = getelementptr inbounds nuw i8, ptr %7, i64 184
  store i32 0, ptr %12, align 8, !tbaa !18
  %13 = getelementptr inbounds nuw i8, ptr %7, i64 56
  %14 = getelementptr inbounds nuw i8, ptr %7, i64 208
  store ptr %13, ptr %14, align 8, !tbaa !19
  %15 = getelementptr inbounds nuw i8, ptr %7, i64 192
  store ptr %13, ptr %15, align 8, !tbaa !20
  %16 = load ptr, ptr %8, align 8, !tbaa !21
  %17 = call noundef i32 %16(ptr noundef %1, ptr noundef nonnull %13, i32 noundef 128)
  %18 = load ptr, ptr %15, align 8, !tbaa !20
  %19 = load ptr, ptr %14, align 8, !tbaa !19
  %20 = ptrtoint ptr %18 to i64
  %21 = ptrtoint ptr %19 to i64
  %22 = sub i64 %20, %21
  %23 = trunc i64 %22 to i32
  %24 = load i32, ptr %12, align 8, !tbaa !18
  %25 = add nsw i32 %24, %23
  store i32 %25, ptr %12, align 8, !tbaa !18
  %26 = icmp eq i32 %17, 0
  br i1 %26, label %27, label %29

27:                                               ; preds = %6
  store i32 0, ptr %11, align 8, !tbaa !17
  %28 = getelementptr inbounds nuw i8, ptr %7, i64 57
  store i8 0, ptr %13, align 8, !tbaa !22
  br label %_ZL21stbi__start_callbacksP13stbi__contextP17stbi_io_callbacksPv.exit

29:                                               ; preds = %6
  %30 = sext i32 %17 to i64
  %31 = getelementptr inbounds i8, ptr %13, i64 %30
  br label %_ZL21stbi__start_callbacksP13stbi__contextP17stbi_io_callbacksPv.exit

_ZL21stbi__start_callbacksP13stbi__contextP17stbi_io_callbacksPv.exit: ; preds = %27, %29
  %.sink.i.i = phi ptr [ %28, %27 ], [ %31, %29 ]
  store ptr %13, ptr %15, align 8, !tbaa !20
  %32 = getelementptr inbounds nuw i8, ptr %7, i64 200
  store ptr %.sink.i.i, ptr %32, align 8, !tbaa !23
  %33 = getelementptr inbounds nuw i8, ptr %7, i64 216
  store ptr %.sink.i.i, ptr %33, align 8, !tbaa !24
  %34 = call fastcc noundef ptr @_ZL32stbi__load_and_postprocess_16bitP13stbi__contextPiS1_S1_i(ptr noundef %7, ptr noundef %2, ptr noundef %3, ptr noundef %4, i32 noundef %5)
  call void @llvm.lifetime.end.p0(i64 224, ptr nonnull %7) #40
  ret ptr %34
}